; Function Attrs: nounwind uwtable
define internal i32 @SpoolssSetJob_q(ptr noundef %0, i32 noundef %1, ptr noundef %2, ptr noundef %3, ptr noundef %4, ptr noundef %5) #0 {
  %7 = alloca i32, align 4
  %8 = alloca i32, align 4
  %9 = load i32, ptr @hf_hnd, align 4
  %10 = tail call i32 @dissect_nt_policy_hnd(ptr noundef %0, i32 noundef %1, ptr noundef %2, ptr noundef %3, ptr noundef %4, ptr noundef %5, i32 noundef %9, ptr noundef null, ptr noundef null, i32 noundef 0, i32 noundef 0) #5
  %11 = load i32, ptr @hf_job_id, align 4
  %12 = call i32 @dissect_ndr_uint32(ptr noundef %0, i32 noundef %10, ptr noundef %2, ptr noundef %3, ptr noundef %4, ptr noundef %5, i32 noundef %11, ptr noundef nonnull %7) #5
  %13 = load i32, ptr @hf_level, align 4
  %14 = call i32 @dissect_ndr_uint32(ptr noundef %0, i32 noundef %12, ptr noundef %2, ptr noundef %3, ptr noundef %4, ptr noundef %5, i32 noundef %13, ptr noundef null) #5
  %15 = load i32, ptr @hf_setjob_cmd, align 4
  %16 = call i32 @dissect_ndr_uint32(ptr noundef %0, i32 noundef %14, ptr noundef %2, ptr noundef %3, ptr noundef %4, ptr noundef %5, i32 noundef %15, ptr noundef nonnull %8) #5
  %17 = getelementptr inbounds nuw i8, ptr %2, i64 8
  %18 = load ptr, ptr %17, align 8
  %19 = load i32, ptr %8, align 4
  %20 = call ptr @val_to_str(i32 noundef %19, ptr noundef nonnull @setjob_commands, ptr noundef nonnull @.str.758) #5
  %21 = load i32, ptr %7, align 4
  call void (ptr, i32, ptr, ...) @col_append_fstr(ptr noundef %18, i32 noundef 25, ptr noundef nonnull @.str.1210, ptr noundef %20, i32 noundef %21) #5
  ret i32 %16
}